(dp0
S'Mu50_OR_TkMu50_PtEtaBins'
p1
(dp2
S'abseta_pt_DATA'
p3
(dp4
S'abseta:[0.0,0.9]'
p5
(dp6
S'pt:[80.0,120.0]'
p7
(dp8
S'value'
p9
F0.942244827747345
sS'error'
p10
F0.0009241479186482269
ssS'pt:[120.0,200.0]'
p11
(dp12
g9
F0.9346446394920349
sg10
F0.0019078130647778978
ssS'pt:[400.0,800.0]'
p13
(dp14
g9
F0.8754564523696899
sg10
F0.023155123754958516
ssS'pt:[55.0,60.0]'
p15
(dp16
g9
F0.9469417929649353
sg10
F0.0004854806694841322
ssS'pt:[52.0,55.0]'
p17
(dp18
g9
F0.946448028087616
sg10
F0.0004682164196364163
ssS'pt:[60.0,80.0]'
p19
(dp20
g9
F0.945823073387146
sg10
F0.0004351352310857911
ssS'pt:[200.0,300.0]'
p21
(dp22
g9
F0.9260092973709106
sg10
F0.005402191128388514
ssS'pt:[300.0,400.0]'
p23
(dp24
g9
F0.9131604433059692
sg10
F0.012928266953747646
sssS'abseta:[1.2,2.1]'
p25
(dp26
S'pt:[80.0,120.0]'
p27
(dp28
g9
F0.897246241569519
sg10
F0.0013785455981768046
ssS'pt:[120.0,200.0]'
p29
(dp30
g9
F0.8991941809654236
sg10
F0.0028815104369133457
ssS'pt:[400.0,800.0]'
p31
(dp32
g9
F0.9054358601570129
sg10
F0.035332709480145816
ssS'pt:[55.0,60.0]'
p33
(dp34
g9
F0.896529495716095
sg10
F0.0007584916646465943
ssS'pt:[52.0,55.0]'
p35
(dp36
g9
F0.8930111527442932
sg10
F0.0007283417049400105
ssS'pt:[60.0,80.0]'
p37
(dp38
g9
F0.898292064666748
sg10
F0.0006762988093988661
ssS'pt:[200.0,300.0]'
p39
(dp40
g9
F0.8854545950889587
sg10
F0.007479053936515311
ssS'pt:[300.0,400.0]'
p41
(dp42
g9
F0.8913320302963257
sg10
F0.019441927360430062
sssS'abseta:[2.1,2.4]'
p43
(dp44
S'pt:[80.0,120.0]'
p45
(dp46
g9
F0.8300245404243469
sg10
F0.004156791041337636
ssS'pt:[120.0,200.0]'
p47
(dp48
g9
F0.830938458442688
sg10
F0.009274223002821482
ssS'pt:[400.0,800.0]'
p49
(dp50
g9
F0.6667230725288391
sg10
F0.2882670644302348
ssS'pt:[55.0,60.0]'
p51
(dp52
g9
F0.8247786164283752
sg10
F0.0021237335280392413
ssS'pt:[52.0,55.0]'
p53
(dp54
g9
F0.8056685328483582
sg10
F0.0020586686421360384
ssS'pt:[60.0,80.0]'
p55
(dp56
g9
F0.8312885761260986
sg10
F0.0019436080146879378
ssS'pt:[200.0,300.0]'
p57
(dp58
g9
F0.8005096912384033
sg10
F0.052000661564540564
ssS'pt:[300.0,400.0]'
p59
(dp60
g9
F0.8017706274986267
sg10
F0.11633905457466501
sssS'abseta:[0.9,1.2]'
p61
(dp62
S'pt:[80.0,120.0]'
p63
(dp64
g9
F0.9423900842666626
sg10
F0.0016470267563471704
ssS'pt:[120.0,200.0]'
p65
(dp66
g9
F0.9294775128364563
sg10
F0.003563522292452023
ssS'pt:[400.0,800.0]'
p67
(dp68
g9
F0.9305632710456848
sg10
F0.04109612451010286
ssS'pt:[55.0,60.0]'
p69
(dp70
g9
F0.9480485320091248
sg10
F0.0008534564820636368
ssS'pt:[52.0,55.0]'
p71
(dp72
g9
F0.945401668548584
sg10
F0.0008078652434038567
ssS'pt:[60.0,80.0]'
p73
(dp74
g9
F0.9474168419837952
sg10
F0.000775659025302976
ssS'pt:[200.0,300.0]'
p75
(dp76
g9
F0.9161905646324158
sg10
F0.00915036918550056
ssS'pt:[300.0,400.0]'
p77
(dp78
g9
F0.9247695207595825
sg10
F0.022310444393961647
ssssS'pt_abseta_DATA'
p79
(dp80
S'pt:[80.0,120.0]'
p81
(dp82
S'abseta:[0.0,0.9]'
p83
(dp84
g9
F0.942244827747345
sg10
F0.0009241479186482269
ssS'abseta:[1.2,2.1]'
p85
(dp86
g9
F0.897246241569519
sg10
F0.0013785455981768046
ssS'abseta:[2.1,2.4]'
p87
(dp88
g9
F0.8300245404243469
sg10
F0.004156791041337636
ssS'abseta:[0.9,1.2]'
p89
(dp90
g9
F0.9423900842666626
sg10
F0.0016470267563471704
sssS'pt:[120.0,200.0]'
p91
(dp92
S'abseta:[0.0,0.9]'
p93
(dp94
g9
F0.9346446394920349
sg10
F0.0019078130647778978
ssS'abseta:[1.2,2.1]'
p95
(dp96
g9
F0.8991941809654236
sg10
F0.0028815104369133457
ssS'abseta:[2.1,2.4]'
p97
(dp98
g9
F0.830938458442688
sg10
F0.009274223002821482
ssS'abseta:[0.9,1.2]'
p99
(dp100
g9
F0.9294775128364563
sg10
F0.003563522292452023
sssS'pt:[400.0,800.0]'
p101
(dp102
S'abseta:[0.0,0.9]'
p103
(dp104
g9
F0.8754564523696899
sg10
F0.023155123754958516
ssS'abseta:[1.2,2.1]'
p105
(dp106
g9
F0.9054358601570129
sg10
F0.035332709480145816
ssS'abseta:[2.1,2.4]'
p107
(dp108
g9
F0.6667230725288391
sg10
F0.2882670644302348
ssS'abseta:[0.9,1.2]'
p109
(dp110
g9
F0.9305632710456848
sg10
F0.04109612451010286
sssS'pt:[55.0,60.0]'
p111
(dp112
S'abseta:[0.0,0.9]'
p113
(dp114
g9
F0.9469417929649353
sg10
F0.0004854806694841322
ssS'abseta:[1.2,2.1]'
p115
(dp116
g9
F0.896529495716095
sg10
F0.0007584916646465943
ssS'abseta:[2.1,2.4]'
p117
(dp118
g9
F0.8247786164283752
sg10
F0.0021237335280392413
ssS'abseta:[0.9,1.2]'
p119
(dp120
g9
F0.9480485320091248
sg10
F0.0008534564820636368
sssS'pt:[52.0,55.0]'
p121
(dp122
S'abseta:[0.0,0.9]'
p123
(dp124
g9
F0.946448028087616
sg10
F0.0004682164196364163
ssS'abseta:[1.2,2.1]'
p125
(dp126
g9
F0.8930111527442932
sg10
F0.0007283417049400105
ssS'abseta:[2.1,2.4]'
p127
(dp128
g9
F0.8056685328483582
sg10
F0.0020586686421360384
ssS'abseta:[0.9,1.2]'
p129
(dp130
g9
F0.945401668548584
sg10
F0.0008078652434038567
sssS'pt:[60.0,80.0]'
p131
(dp132
S'abseta:[0.0,0.9]'
p133
(dp134
g9
F0.945823073387146
sg10
F0.0004351352310857911
ssS'abseta:[1.2,2.1]'
p135
(dp136
g9
F0.898292064666748
sg10
F0.0006762988093988661
ssS'abseta:[2.1,2.4]'
p137
(dp138
g9
F0.8312885761260986
sg10
F0.0019436080146879378
ssS'abseta:[0.9,1.2]'
p139
(dp140
g9
F0.9474168419837952
sg10
F0.000775659025302976
sssS'pt:[200.0,300.0]'
p141
(dp142
S'abseta:[0.0,0.9]'
p143
(dp144
g9
F0.9260092973709106
sg10
F0.005402191128388514
ssS'abseta:[1.2,2.1]'
p145
(dp146
g9
F0.8854545950889587
sg10
F0.007479053936515311
ssS'abseta:[2.1,2.4]'
p147
(dp148
g9
F0.8005096912384033
sg10
F0.052000661564540564
ssS'abseta:[0.9,1.2]'
p149
(dp150
g9
F0.9161905646324158
sg10
F0.00915036918550056
sssS'pt:[300.0,400.0]'
p151
(dp152
S'abseta:[0.0,0.9]'
p153
(dp154
g9
F0.9131604433059692
sg10
F0.012928266953747646
ssS'abseta:[1.2,2.1]'
p155
(dp156
g9
F0.8913320302963257
sg10
F0.019441927360430062
ssS'abseta:[2.1,2.4]'
p157
(dp158
g9
F0.8017706274986267
sg10
F0.11633905457466501
ssS'abseta:[0.9,1.2]'
p159
(dp160
g9
F0.9247695207595825
sg10
F0.022310444393961647
sssssS'IsoMu24_OR_IsoTkMu24_PtEtaBins'
p161
(dp162
S'abseta_pt_DATA'
p163
(dp164
S'abseta:[0.0,0.9]'
p165
(dp166
S'pt:[30.0,40.0]'
p167
(dp168
g9
F0.9253525137901306
sg10
F0.00018134895275657365
ssS'pt:[26.0,30.0]'
p169
(dp170
g9
F0.9008466005325317
sg10
F0.0005528315282826842
ssS'pt:[60.0,120.0]'
p171
(dp172
g9
F0.9434313178062439
sg10
F0.0004838626580426759
ssS'pt:[120.0,200.0]'
p173
(dp174
g9
F0.9325218796730042
sg10
F0.0022937507138603265
ssS'pt:[200.0,500.0]'
p175
(dp176
g9
F0.9226770401000977
sg10
F0.0061464200066293495
ssS'pt:[50.0,60.0]'
p177
(dp178
g9
F0.9407863616943359
sg10
F0.00031839173174461744
ssS'pt:[40.0,50.0]'
p179
(dp180
g9
F0.9378845691680908
sg10
F0.00013851852231086965
sssS'abseta:[1.2,2.1]'
p181
(dp182
S'pt:[30.0,40.0]'
p183
(dp184
g9
F0.8618552684783936
sg10
F0.0003068772103850918
ssS'pt:[26.0,30.0]'
p185
(dp186
g9
F0.8226411938667297
sg10
F0.0009250633499926955
ssS'pt:[60.0,120.0]'
p187
(dp188
g9
F0.8949129581451416
sg10
F0.0008410294679861128
ssS'pt:[120.0,200.0]'
p189
(dp190
g9
F0.8981654047966003
sg10
F0.0032492350701280415
ssS'pt:[200.0,500.0]'
p191
(dp192
g9
F0.88450688123703
sg10
F0.012275823430332913
ssS'pt:[50.0,60.0]'
p193
(dp194
g9
F0.8910730481147766
sg10
F0.0004536174224499696
ssS'pt:[40.0,50.0]'
p195
(dp196
g9
F0.8850548267364502
sg10
F0.00021101292929825573
sssS'abseta:[2.1,2.4]'
p197
(dp198
S'pt:[30.0,40.0]'
p199
(dp200
g9
F0.7810114622116089
sg10
F0.000719861530485433
ssS'pt:[26.0,30.0]'
p201
(dp202
g9
F0.7234632968902588
sg10
F0.0020459973220148604
ssS'pt:[60.0,120.0]'
p203
(dp204
g9
F0.827857494354248
sg10
F0.002199670346529576
ssS'pt:[120.0,200.0]'
p205
(dp206
g9
F0.8396689295768738
sg10
F0.010318169896624853
ssS'pt:[200.0,500.0]'
p207
(dp208
g9
F0.8038449883460999
sg10
F0.026660742084781464
ssS'pt:[50.0,60.0]'
p209
(dp210
g9
F0.8225867748260498
sg10
F0.0012370034511363752
ssS'pt:[40.0,50.0]'
p211
(dp212
g9
F0.8125273585319519
sg10
F0.0005746677894118745
sssS'abseta:[0.9,1.2]'
p213
(dp214
S'pt:[30.0,40.0]'
p215
(dp216
g9
F0.92414391040802
sg10
F0.00035092708282316517
ssS'pt:[26.0,30.0]'
p217
(dp218
g9
F0.8866782784461975
sg10
F0.0013039681980411282
ssS'pt:[60.0,120.0]'
p219
(dp220
g9
F0.9447923302650452
sg10
F0.0012393228972277185
ssS'pt:[120.0,200.0]'
p221
(dp222
g9
F0.9298946261405945
sg10
F0.0033506936361430363
ssS'pt:[200.0,500.0]'
p223
(dp224
g9
F0.919489324092865
sg10
F0.008140969819657656
ssS'pt:[50.0,60.0]'
p225
(dp226
g9
F0.9452981352806091
sg10
F0.0005121182168315261
ssS'pt:[40.0,50.0]'
p227
(dp228
g9
F0.9411014914512634
sg10
F0.00024118691065674406
ssssS'pt_abseta_DATA'
p229
(dp230
S'pt:[30.0,40.0]'
p231
(dp232
S'abseta:[0.0,0.9]'
p233
(dp234
g9
F0.9253525137901306
sg10
F0.00018134895275657365
ssS'abseta:[1.2,2.1]'
p235
(dp236
g9
F0.8618552684783936
sg10
F0.0003068772103850918
ssS'abseta:[2.1,2.4]'
p237
(dp238
g9
F0.7810114622116089
sg10
F0.000719861530485433
ssS'abseta:[0.9,1.2]'
p239
(dp240
g9
F0.92414391040802
sg10
F0.00035092708282316517
sssS'pt:[26.0,30.0]'
p241
(dp242
S'abseta:[0.0,0.9]'
p243
(dp244
g9
F0.9008466005325317
sg10
F0.0005528315282826842
ssS'abseta:[1.2,2.1]'
p245
(dp246
g9
F0.8226411938667297
sg10
F0.0009250633499926955
ssS'abseta:[2.1,2.4]'
p247
(dp248
g9
F0.7234632968902588
sg10
F0.0020459973220148604
ssS'abseta:[0.9,1.2]'
p249
(dp250
g9
F0.8866782784461975
sg10
F0.0013039681980411282
sssS'pt:[60.0,120.0]'
p251
(dp252
S'abseta:[0.0,0.9]'
p253
(dp254
g9
F0.9434313178062439
sg10
F0.0004838626580426759
ssS'abseta:[1.2,2.1]'
p255
(dp256
g9
F0.8949129581451416
sg10
F0.0008410294679861128
ssS'abseta:[2.1,2.4]'
p257
(dp258
g9
F0.827857494354248
sg10
F0.002199670346529576
ssS'abseta:[0.9,1.2]'
p259
(dp260
g9
F0.9447923302650452
sg10
F0.0012393228972277185
sssS'pt:[120.0,200.0]'
p261
(dp262
S'abseta:[0.0,0.9]'
p263
(dp264
g9
F0.9325218796730042
sg10
F0.0022937507138603265
ssS'abseta:[1.2,2.1]'
p265
(dp266
g9
F0.8981654047966003
sg10
F0.0032492350701280415
ssS'abseta:[2.1,2.4]'
p267
(dp268
g9
F0.8396689295768738
sg10
F0.010318169896624853
ssS'abseta:[0.9,1.2]'
p269
(dp270
g9
F0.9298946261405945
sg10
F0.0033506936361430363
sssS'pt:[200.0,500.0]'
p271
(dp272
S'abseta:[0.0,0.9]'
p273
(dp274
g9
F0.9226770401000977
sg10
F0.0061464200066293495
ssS'abseta:[1.2,2.1]'
p275
(dp276
g9
F0.88450688123703
sg10
F0.012275823430332913
ssS'abseta:[2.1,2.4]'
p277
(dp278
g9
F0.8038449883460999
sg10
F0.026660742084781464
ssS'abseta:[0.9,1.2]'
p279
(dp280
g9
F0.919489324092865
sg10
F0.008140969819657656
sssS'pt:[50.0,60.0]'
p281
(dp282
S'abseta:[0.0,0.9]'
p283
(dp284
g9
F0.9407863616943359
sg10
F0.00031839173174461744
ssS'abseta:[1.2,2.1]'
p285
(dp286
g9
F0.8910730481147766
sg10
F0.0004536174224499696
ssS'abseta:[2.1,2.4]'
p287
(dp288
g9
F0.8225867748260498
sg10
F0.0012370034511363752
ssS'abseta:[0.9,1.2]'
p289
(dp290
g9
F0.9452981352806091
sg10
F0.0005121182168315261
sssS'pt:[40.0,50.0]'
p291
(dp292
S'abseta:[0.0,0.9]'
p293
(dp294
g9
F0.9378845691680908
sg10
F0.00013851852231086965
ssS'abseta:[1.2,2.1]'
p295
(dp296
g9
F0.8850548267364502
sg10
F0.00021101292929825573
ssS'abseta:[2.1,2.4]'
p297
(dp298
g9
F0.8125273585319519
sg10
F0.0005746677894118745
ssS'abseta:[0.9,1.2]'
p299
(dp300
g9
F0.9411014914512634
sg10
F0.00024118691065674406
sssssS'Mu50_OR_TkMu50_EtaBins'
p301
(dp302
S'histo_eta_DATA'
p303
(dp304
S'eta:[-0.2,0.0]'
p305
(dp306
g9
F0.9572223424911499
sg10
F0.0006714563591788573
ssS'eta:[0.2,0.3]'
p307
(dp308
g9
F0.8725190162658691
sg10
F0.0016442495830698192
ssS'eta:[-2.4,-2.1]'
p309
(dp310
g9
F0.8268601894378662
sg10
F0.0015710745604762832
ssS'eta:[0.9,1.2]'
p311
(dp312
g9
F0.9452900886535645
sg10
F0.0006508914983678169
ssS'eta:[0.3,0.9]'
p313
(dp314
g9
F0.950366735458374
sg10
F0.00042357224448295644
ssS'eta:[-0.9,-0.3]'
p315
(dp316
g9
F0.9548339247703552
sg10
F0.0003997941418380135
ssS'eta:[0.0,0.2]'
p317
(dp318
g9
F0.957921028137207
sg10
F0.0006738966222352077
ssS'eta:[-1.2,-0.9]'
p319
(dp320
g9
F0.9474555850028992
sg10
F0.0006327073163711371
ssS'eta:[2.1,2.4]'
p321
(dp322
g9
F0.8168259263038635
sg10
F0.0016188940633105697
ssS'eta:[-1.6,-1.2]'
p323
(dp324
g9
F0.9491552710533142
sg10
F0.0005690191054550866
ssS'eta:[1.2,1.6]'
p325
(dp326
g9
F0.9383488893508911
sg10
F0.0006198526072109209
ssS'eta:[-2.1,-1.6]'
p327
(dp328
g9
F0.840032160282135
sg10
F0.0009549736483849258
ssS'eta:[-0.3,-0.2]'
p329
(dp330
g9
F0.8729986548423767
sg10
F0.0016509316971273394
ssS'eta:[1.6,2.1]'
p331
(dp332
g9
F0.8522988557815552
sg10
F0.0009240453908020344
ssssS'IsoMu24_OR_IsoTkMu24_PtBins'
p333
(dp334
S'histo_pt_DATA'
p335
(dp336
S'pt:[22.0,24.0]'
p337
(dp338
g9
F0.0428524985909462
sg10
F0.0004179270886378572
ssS'pt:[18.0,22.0]'
p339
(dp340
g9
F0.00043678839574567974
sg10
F5.530938020857018e-05
ssS'pt:[120.0,200.0]'
p341
(dp342
g9
F0.9190854430198669
sg10
F0.0014922206265970777
ssS'pt:[15.0,18.0]'
p343
(dp344
g9
F3.06095571431797e-05
sg10
F2.9547257066599395e-05
ssS'pt:[10.0,15.0]'
p345
(dp346
g9
F1.0057021427201107e-05
sg10
F1.6007218498662856e-05
ssS'pt:[80.0,120.0]'
p347
(dp348
g9
F0.9205368757247925
sg10
F0.0007412777336987083
ssS'pt:[26.0,30.0]'
p349
(dp350
g9
F0.8613020181655884
sg10
F0.00036315781562811075
ssS'pt:[30.0,40.0]'
p351
(dp352
g9
F0.8957321643829346
sg10
F0.0001411307557722053
ssS'pt:[24.0,26.0]'
p353
(dp354
g9
F0.8032116293907166
sg10
F0.0007177324042679844
ssS'pt:[200.0,500.0]'
p355
(dp356
g9
F0.9082995057106018
sg10
F0.003596897835694209
ssS'pt:[60.0,80.0]'
p357
(dp358
g9
F0.9196614027023315
sg10
F0.0003661511151199839
ssS'pt:[50.0,60.0]'
p359
(dp360
g9
F0.9167048931121826
sg10
F0.0002309572639895436
ssS'pt:[0.0,10.0]'
p361
(dp362
g9
F0.0
sg10
F3.751707820016684e-05
ssS'pt:[40.0,50.0]'
p363
(dp364
g9
F0.9117698073387146
sg10
F0.00010917030753907485
ssssS'IsoMu24_OR_IsoTkMu24_EtaBins'
p365
(dp366
S'histo_eta_DATA'
p367
(dp368
S'eta:[-0.2,0.0]'
p369
(dp370
g9
F0.9408014416694641
sg10
F0.00028252066945231967
ssS'eta:[0.2,0.3]'
p371
(dp372
g9
F0.8631733655929565
sg10
F0.0006108408195684485
ssS'eta:[-2.4,-2.1]'
p373
(dp374
g9
F0.8006333112716675
sg10
F0.0005689708920587048
ssS'eta:[0.9,1.2]'
p375
(dp376
g9
F0.9338313341140747
sg10
F0.00026406576401112884
ssS'eta:[0.3,0.9]'
p377
(dp378
g9
F0.9394956231117249
sg10
F0.00016893408331013386
ssS'eta:[-0.9,-0.3]'
p379
(dp380
g9
F0.9432604908943176
sg10
F0.00016404774741614212
ssS'eta:[0.0,0.2]'
p381
(dp382
g9
F0.9391297698020935
sg10
F0.00028626794783424093
ssS'eta:[-1.2,-0.9]'
p383
(dp384
g9
F0.9351663589477539
sg10
F0.0002603174781876453
ssS'eta:[2.1,2.4]'
p385
(dp386
g9
F0.7940278053283691
sg10
F0.000574368272932907
ssS'eta:[-1.6,-1.2]'
p387
(dp388
g9
F0.9287658929824829
sg10
F0.0002482619930578965
ssS'eta:[1.2,1.6]'
p389
(dp390
g9
F0.9168823957443237
sg10
F0.00026637019804302673
ssS'eta:[-2.1,-1.6]'
p391
(dp392
g9
F0.8230599761009216
sg10
F0.0003652787794698033
ssS'eta:[-0.3,-0.2]'
p393
(dp394
g9
F0.8628028631210327
sg10
F0.0006090734126514711
ssS'eta:[1.6,2.1]'
p395
(dp396
g9
F0.8369714617729187
sg10
F0.0003530241234505816
ssssS'Mu50_OR_TkMu50_PtBins'
p397
(dp398
S'histo_pt_DATA'
p399
(dp400
S'pt:[120.0,200.0]'
p401
(dp402
g9
F0.9179974794387817
sg10
F0.0014796627482939145
ssS'pt:[25.0,30.0]'
p403
(dp404
g9
F0.0001348453079117462
sg10
F9.98806627459642e-06
ssS'pt:[30.0,40.0]'
p405
(dp406
g9
F0.0006637341575697064
sg10
F1.1971488970676623e-05
ssS'pt:[80.0,120.0]'
p407
(dp408
g9
F0.9212172627449036
sg10
F0.0007222496511977862
ssS'pt:[10.0,15.0]'
p409
(dp410
g9
F0.0
sg10
F1.1353646533874204e-05
ssS'pt:[400.0,800.0]'
p411
(dp412
g9
F0.8887602686882019
sg10
F0.017002453751908835
ssS'pt:[55.0,60.0]'
p413
(dp414
g9
F0.9218987226486206
sg10
F0.000395121832946097
ssS'pt:[45.0,48.0]'
p415
(dp416
g9
F0.009341740980744362
sg10
F8.058744546062078e-05
ssS'pt:[52.0,55.0]'
p417
(dp418
g9
F0.9183596968650818
sg10
F0.0003837844986598551
ssS'pt:[0.0,10.0]'
p419
(dp420
g9
F0.0
sg10
F3.258338059269915e-05
ssS'pt:[50.0,52.0]'
p421
(dp422
g9
F0.8540984392166138
sg10
F0.00048571375394289664
ssS'pt:[40.0,45.0]'
p423
(dp424
g9
F0.002635401673614979
sg10
F2.6469214266368886e-05
ssS'pt:[60.0,80.0]'
p425
(dp426
g9
F0.9229775667190552
sg10
F0.0003511981032014557
ssS'pt:[20.0,25.0]'
p427
(dp428
g9
F3.6806162825087085e-05
sg10
F8.43508886954691e-06
ssS'pt:[200.0,300.0]'
p429
(dp430
g9
F0.9072356224060059
sg10
F0.003895825888832519
ssS'pt:[48.0,50.0]'
p431
(dp432
g9
F0.1103510856628418
sg10
F0.0003604937508667325
ssS'pt:[300.0,400.0]'
p433
(dp434
g9
F0.9067981839179993
sg10
F0.009722436187352187
ssS'pt:[15.0,20.0]'
p435
(dp436
g9
F1.3756141015619505e-05
sg10
F7.084703302651451e-06
ssss.