(dp0
S'Mu50_OR_TkMu50_PtEtaBins'
p1
(dp2
S'abseta_pt_DATA'
p3
(dp4
S'abseta:[0.0,0.9]'
p5
(dp6
S'pt:[80.0,120.0]'
p7
(dp8
S'value'
p9
F0.9264454245567322
sS'error'
p10
F0.0026675103923643156
ssS'pt:[120.0,200.0]'
p11
(dp12
g9
F0.9219390749931335
sg10
F0.00532814834435575
ssS'pt:[400.0,800.0]'
p13
(dp14
g9
F0.9062419533729553
sg10
F0.0598291171248521
ssS'pt:[55.0,60.0]'
p15
(dp16
g9
F0.9275491833686829
sg10
F0.00150614774633612
ssS'pt:[52.0,55.0]'
p17
(dp18
g9
F0.9166328310966492
sg10
F0.0014790132128190264
ssS'pt:[60.0,80.0]'
p19
(dp20
g9
F0.9283425211906433
sg10
F0.0013591869071208718
ssS'pt:[200.0,300.0]'
p21
(dp22
g9
F0.8950404524803162
sg10
F0.013904524547697519
ssS'pt:[300.0,400.0]'
p23
(dp24
g9
F0.9050552845001221
sg10
F0.029761670650033642
sssS'abseta:[1.2,2.1]'
p25
(dp26
S'pt:[80.0,120.0]'
p27
(dp28
g9
F0.8946114778518677
sg10
F0.004457031126254753
ssS'pt:[120.0,200.0]'
p29
(dp30
g9
F0.9014526605606079
sg10
F0.006867504900799031
ssS'pt:[400.0,800.0]'
p31
(dp32
g9
F0.813278079032898
sg10
F0.109618110571642
ssS'pt:[55.0,60.0]'
p33
(dp34
g9
F0.8861404061317444
sg10
F0.002023885150537282
ssS'pt:[52.0,55.0]'
p35
(dp36
g9
F0.875056266784668
sg10
F0.0020050750846665796
ssS'pt:[60.0,80.0]'
p37
(dp38
g9
F0.8920310139656067
sg10
F0.001978881717433406
ssS'pt:[200.0,300.0]'
p39
(dp40
g9
F0.8851654529571533
sg10
F0.018926980703976633
ssS'pt:[300.0,400.0]'
p41
(dp42
g9
F0.882356584072113
sg10
F0.05000033977938636
sssS'abseta:[2.1,2.4]'
p43
(dp44
S'pt:[80.0,120.0]'
p45
(dp46
g9
F0.8323211669921875
sg10
F0.013309841719085499
ssS'pt:[120.0,200.0]'
p47
(dp48
g9
F0.853032648563385
sg10
F0.046455461053194175
ssS'pt:[400.0,800.0]'
p49
(dp50
g9
F1.0
sg10
F0.460418433295632
ssS'pt:[55.0,60.0]'
p51
(dp52
g9
F0.793785035610199
sg10
F0.005997394260801926
ssS'pt:[52.0,55.0]'
p53
(dp54
g9
F0.7555490136146545
sg10
F0.0060342425866970525
ssS'pt:[60.0,80.0]'
p55
(dp56
g9
F0.8058068752288818
sg10
F0.013720466758898906
ssS'pt:[200.0,300.0]'
p57
(dp58
g9
F0.6216157674789429
sg10
F0.08713698419427394
ssS'pt:[300.0,400.0]'
p59
(dp60
g9
F1.0
sg10
F0.265281243859616
sssS'abseta:[0.9,1.2]'
p61
(dp62
S'pt:[80.0,120.0]'
p63
(dp64
g9
F0.9412208795547485
sg10
F0.00443347770498048
ssS'pt:[120.0,200.0]'
p65
(dp66
g9
F0.9167112112045288
sg10
F0.009064378224552387
ssS'pt:[400.0,800.0]'
p67
(dp68
g9
F0.8666673898696899
sg10
F0.1029988119971632
ssS'pt:[55.0,60.0]'
p69
(dp70
g9
F0.9340501427650452
sg10
F0.002508964980271518
ssS'pt:[52.0,55.0]'
p71
(dp72
g9
F0.9285403490066528
sg10
F0.0025158665357980503
ssS'pt:[60.0,80.0]'
p73
(dp74
g9
F0.9417866468429565
sg10
F0.0020382125312261782
ssS'pt:[200.0,300.0]'
p75
(dp76
g9
F0.8899973034858704
sg10
F0.025525481763635737
ssS'pt:[300.0,400.0]'
p77
(dp78
g9
F0.8126009106636047
sg10
F0.12758137775007639
ssssS'pt_abseta_DATA'
p79
(dp80
S'pt:[80.0,120.0]'
p81
(dp82
S'abseta:[0.0,0.9]'
p83
(dp84
g9
F0.9264454245567322
sg10
F0.0026675103923643156
ssS'abseta:[1.2,2.1]'
p85
(dp86
g9
F0.8946114778518677
sg10
F0.004457031126254753
ssS'abseta:[2.1,2.4]'
p87
(dp88
g9
F0.8323211669921875
sg10
F0.013309841719085499
ssS'abseta:[0.9,1.2]'
p89
(dp90
g9
F0.9412208795547485
sg10
F0.00443347770498048
sssS'pt:[120.0,200.0]'
p91
(dp92
S'abseta:[0.0,0.9]'
p93
(dp94
g9
F0.9219390749931335
sg10
F0.00532814834435575
ssS'abseta:[1.2,2.1]'
p95
(dp96
g9
F0.9014526605606079
sg10
F0.006867504900799031
ssS'abseta:[2.1,2.4]'
p97
(dp98
g9
F0.853032648563385
sg10
F0.046455461053194175
ssS'abseta:[0.9,1.2]'
p99
(dp100
g9
F0.9167112112045288
sg10
F0.009064378224552387
sssS'pt:[400.0,800.0]'
p101
(dp102
S'abseta:[0.0,0.9]'
p103
(dp104
g9
F0.9062419533729553
sg10
F0.0598291171248521
ssS'abseta:[1.2,2.1]'
p105
(dp106
g9
F0.813278079032898
sg10
F0.109618110571642
ssS'abseta:[2.1,2.4]'
p107
(dp108
g9
F1.0
sg10
F0.460418433295632
ssS'abseta:[0.9,1.2]'
p109
(dp110
g9
F0.8666673898696899
sg10
F0.1029988119971632
sssS'pt:[55.0,60.0]'
p111
(dp112
S'abseta:[0.0,0.9]'
p113
(dp114
g9
F0.9275491833686829
sg10
F0.00150614774633612
ssS'abseta:[1.2,2.1]'
p115
(dp116
g9
F0.8861404061317444
sg10
F0.002023885150537282
ssS'abseta:[2.1,2.4]'
p117
(dp118
g9
F0.793785035610199
sg10
F0.005997394260801926
ssS'abseta:[0.9,1.2]'
p119
(dp120
g9
F0.9340501427650452
sg10
F0.002508964980271518
sssS'pt:[52.0,55.0]'
p121
(dp122
S'abseta:[0.0,0.9]'
p123
(dp124
g9
F0.9166328310966492
sg10
F0.0014790132128190264
ssS'abseta:[1.2,2.1]'
p125
(dp126
g9
F0.875056266784668
sg10
F0.0020050750846665796
ssS'abseta:[2.1,2.4]'
p127
(dp128
g9
F0.7555490136146545
sg10
F0.0060342425866970525
ssS'abseta:[0.9,1.2]'
p129
(dp130
g9
F0.9285403490066528
sg10
F0.0025158665357980503
sssS'pt:[60.0,80.0]'
p131
(dp132
S'abseta:[0.0,0.9]'
p133
(dp134
g9
F0.9283425211906433
sg10
F0.0013591869071208718
ssS'abseta:[1.2,2.1]'
p135
(dp136
g9
F0.8920310139656067
sg10
F0.001978881717433406
ssS'abseta:[2.1,2.4]'
p137
(dp138
g9
F0.8058068752288818
sg10
F0.013720466758898906
ssS'abseta:[0.9,1.2]'
p139
(dp140
g9
F0.9417866468429565
sg10
F0.0020382125312261782
sssS'pt:[200.0,300.0]'
p141
(dp142
S'abseta:[0.0,0.9]'
p143
(dp144
g9
F0.8950404524803162
sg10
F0.013904524547697519
ssS'abseta:[1.2,2.1]'
p145
(dp146
g9
F0.8851654529571533
sg10
F0.018926980703976633
ssS'abseta:[2.1,2.4]'
p147
(dp148
g9
F0.6216157674789429
sg10
F0.08713698419427394
ssS'abseta:[0.9,1.2]'
p149
(dp150
g9
F0.8899973034858704
sg10
F0.025525481763635737
sssS'pt:[300.0,400.0]'
p151
(dp152
S'abseta:[0.0,0.9]'
p153
(dp154
g9
F0.9050552845001221
sg10
F0.029761670650033642
ssS'abseta:[1.2,2.1]'
p155
(dp156
g9
F0.882356584072113
sg10
F0.05000033977938636
ssS'abseta:[2.1,2.4]'
p157
(dp158
g9
F1.0
sg10
F0.265281243859616
ssS'abseta:[0.9,1.2]'
p159
(dp160
g9
F0.8126009106636047
sg10
F0.12758137775007639
sssssS'IsoMu24_OR_IsoTkMu24_PtEtaBins'
p161
(dp162
S'abseta_pt_DATA'
p163
(dp164
S'abseta:[0.0,0.9]'
p165
(dp166
S'pt:[30.0,40.0]'
p167
(dp168
g9
F0.9096210598945618
sg10
F0.000490165113490901
ssS'pt:[26.0,30.0]'
p169
(dp170
g9
F0.8850175142288208
sg10
F0.0015057354633409906
ssS'pt:[60.0,120.0]'
p171
(dp172
g9
F0.9250591397285461
sg10
F0.0012885279029184414
ssS'pt:[120.0,200.0]'
p173
(dp174
g9
F0.9231219291687012
sg10
F0.00523443163384173
ssS'pt:[200.0,500.0]'
p175
(dp176
g9
F0.9015135169029236
sg10
F0.01213622823637744
ssS'pt:[50.0,60.0]'
p177
(dp178
g9
F0.9255853891372681
sg10
F0.0008313211094542867
ssS'pt:[40.0,50.0]'
p179
(dp180
g9
F0.9210624098777771
sg10
F0.00039006038929293655
sssS'abseta:[1.2,2.1]'
p181
(dp182
S'pt:[30.0,40.0]'
p183
(dp184
g9
F0.8621484637260437
sg10
F0.0007626916451993251
ssS'pt:[26.0,30.0]'
p185
(dp186
g9
F0.818263053894043
sg10
F0.002373983746062316
ssS'pt:[60.0,120.0]'
p187
(dp188
g9
F0.8918881416320801
sg10
F0.0017256742663645348
ssS'pt:[120.0,200.0]'
p189
(dp190
g9
F0.9006831645965576
sg10
F0.007007841337779952
ssS'pt:[200.0,500.0]'
p191
(dp192
g9
F0.8881635665893555
sg10
F0.0170114618159102
ssS'pt:[50.0,60.0]'
p193
(dp194
g9
F0.8886387348175049
sg10
F0.0011798210241643972
ssS'pt:[40.0,50.0]'
p195
(dp196
g9
F0.8821852207183838
sg10
F0.0005378258917777854
sssS'abseta:[2.1,2.4]'
p197
(dp198
S'pt:[30.0,40.0]'
p199
(dp200
g9
F0.7787671089172363
sg10
F0.001827677704439503
ssS'pt:[26.0,30.0]'
p201
(dp202
g9
F0.7205517292022705
sg10
F0.004896119444514332
ssS'pt:[60.0,120.0]'
p203
(dp204
g9
F0.8212152123451233
sg10
F0.005947430919648164
ssS'pt:[120.0,200.0]'
p205
(dp206
g9
F0.8643866777420044
sg10
F0.03249468165373908
ssS'pt:[200.0,500.0]'
p207
(dp208
g9
F0.7020530104637146
sg10
F0.07178880242677621
ssS'pt:[50.0,60.0]'
p209
(dp210
g9
F0.8208643198013306
sg10
F0.0031078236622727384
ssS'pt:[40.0,50.0]'
p211
(dp212
g9
F0.8104382753372192
sg10
F5.971025583251244e-06
sssS'abseta:[0.9,1.2]'
p213
(dp214
S'pt:[30.0,40.0]'
p215
(dp216
g9
F0.9165176749229431
sg10
F0.0009221429646039588
ssS'pt:[26.0,30.0]'
p217
(dp218
g9
F0.8788390159606934
sg10
F0.0030268405030889536
ssS'pt:[60.0,120.0]'
p219
(dp220
g9
F0.9398186802864075
sg10
F0.001944001292097713
ssS'pt:[120.0,200.0]'
p221
(dp222
g9
F0.914897084236145
sg10
F0.009205197657536019
ssS'pt:[200.0,500.0]'
p223
(dp224
g9
F0.8771956562995911
sg10
F0.025338826094780647
ssS'pt:[50.0,60.0]'
p225
(dp226
g9
F0.9368553161621094
sg10
F0.001450620493885947
ssS'pt:[40.0,50.0]'
p227
(dp228
g9
F0.9313942790031433
sg10
F0.0006484351736681637
ssssS'pt_abseta_DATA'
p229
(dp230
S'pt:[30.0,40.0]'
p231
(dp232
S'abseta:[0.0,0.9]'
p233
(dp234
g9
F0.9096210598945618
sg10
F0.000490165113490901
ssS'abseta:[1.2,2.1]'
p235
(dp236
g9
F0.8621484637260437
sg10
F0.0007626916451993251
ssS'abseta:[2.1,2.4]'
p237
(dp238
g9
F0.7787671089172363
sg10
F0.001827677704439503
ssS'abseta:[0.9,1.2]'
p239
(dp240
g9
F0.9165176749229431
sg10
F0.0009221429646039588
sssS'pt:[26.0,30.0]'
p241
(dp242
S'abseta:[0.0,0.9]'
p243
(dp244
g9
F0.8850175142288208
sg10
F0.0015057354633409906
ssS'abseta:[1.2,2.1]'
p245
(dp246
g9
F0.818263053894043
sg10
F0.002373983746062316
ssS'abseta:[2.1,2.4]'
p247
(dp248
g9
F0.7205517292022705
sg10
F0.004896119444514332
ssS'abseta:[0.9,1.2]'
p249
(dp250
g9
F0.8788390159606934
sg10
F0.0030268405030889536
sssS'pt:[60.0,120.0]'
p251
(dp252
S'abseta:[0.0,0.9]'
p253
(dp254
g9
F0.9250591397285461
sg10
F0.0012885279029184414
ssS'abseta:[1.2,2.1]'
p255
(dp256
g9
F0.8918881416320801
sg10
F0.0017256742663645348
ssS'abseta:[2.1,2.4]'
p257
(dp258
g9
F0.8212152123451233
sg10
F0.005947430919648164
ssS'abseta:[0.9,1.2]'
p259
(dp260
g9
F0.9398186802864075
sg10
F0.001944001292097713
sssS'pt:[120.0,200.0]'
p261
(dp262
S'abseta:[0.0,0.9]'
p263
(dp264
g9
F0.9231219291687012
sg10
F0.00523443163384173
ssS'abseta:[1.2,2.1]'
p265
(dp266
g9
F0.9006831645965576
sg10
F0.007007841337779952
ssS'abseta:[2.1,2.4]'
p267
(dp268
g9
F0.8643866777420044
sg10
F0.03249468165373908
ssS'abseta:[0.9,1.2]'
p269
(dp270
g9
F0.914897084236145
sg10
F0.009205197657536019
sssS'pt:[200.0,500.0]'
p271
(dp272
S'abseta:[0.0,0.9]'
p273
(dp274
g9
F0.9015135169029236
sg10
F0.01213622823637744
ssS'abseta:[1.2,2.1]'
p275
(dp276
g9
F0.8881635665893555
sg10
F0.0170114618159102
ssS'abseta:[2.1,2.4]'
p277
(dp278
g9
F0.7020530104637146
sg10
F0.07178880242677621
ssS'abseta:[0.9,1.2]'
p279
(dp280
g9
F0.8771956562995911
sg10
F0.025338826094780647
sssS'pt:[50.0,60.0]'
p281
(dp282
S'abseta:[0.0,0.9]'
p283
(dp284
g9
F0.9255853891372681
sg10
F0.0008313211094542867
ssS'abseta:[1.2,2.1]'
p285
(dp286
g9
F0.8886387348175049
sg10
F0.0011798210241643972
ssS'abseta:[2.1,2.4]'
p287
(dp288
g9
F0.8208643198013306
sg10
F0.0031078236622727384
ssS'abseta:[0.9,1.2]'
p289
(dp290
g9
F0.9368553161621094
sg10
F0.001450620493885947
sssS'pt:[40.0,50.0]'
p291
(dp292
S'abseta:[0.0,0.9]'
p293
(dp294
g9
F0.9210624098777771
sg10
F0.00039006038929293655
ssS'abseta:[1.2,2.1]'
p295
(dp296
g9
F0.8821852207183838
sg10
F0.0005378258917777854
ssS'abseta:[2.1,2.4]'
p297
(dp298
g9
F0.8104382753372192
sg10
F5.971025583251244e-06
ssS'abseta:[0.9,1.2]'
p299
(dp300
g9
F0.9313942790031433
sg10
F0.0006484351736681637
sssssS'Mu50_OR_TkMu50_EtaBins'
p301
(dp302
S'histo_eta_DATA'
p303
(dp304
S'eta:[-0.2,0.0]'
p305
(dp306
g9
F0.9281259775161743
sg10
F0.0021440863561725614
ssS'eta:[0.2,0.3]'
p307
(dp308
g9
F0.8354266285896301
sg10
F0.004610085455643466
ssS'eta:[-2.4,-2.1]'
p309
(dp310
g9
F0.808640718460083
sg10
F0.004309914270365427
ssS'eta:[0.9,1.2]'
p311
(dp312
g9
F0.9326199293136597
sg10
F0.00181535324190529
ssS'eta:[0.3,0.9]'
p313
(dp314
g9
F0.9371376633644104
sg10
F0.0011805829913706487
ssS'eta:[-0.9,-0.3]'
p315
(dp316
g9
F0.9365741610527039
sg10
F0.0011769384181404068
ssS'eta:[0.0,0.2]'
p317
(dp318
g9
F0.9345550537109375
sg10
F0.0020576490564683655
ssS'eta:[-1.2,-0.9]'
p319
(dp320
g9
F0.9353852272033691
sg10
F0.0016988747528827385
ssS'eta:[2.1,2.4]'
p321
(dp322
g9
F0.7804279327392578
sg10
F0.0044804920364093625
ssS'eta:[-1.6,-1.2]'
p323
(dp324
g9
F0.9359539747238159
sg10
F0.0015897071666495497
ssS'eta:[1.2,1.6]'
p325
(dp326
g9
F0.928220272064209
sg10
F0.0016440742522752826
ssS'eta:[-2.1,-1.6]'
p327
(dp328
g9
F0.8345982432365417
sg10
F0.0024702372360715934
ssS'eta:[-0.3,-0.2]'
p329
(dp330
g9
F0.8220973014831543
sg10
F0.004798831051475036
ssS'eta:[1.6,2.1]'
p331
(dp332
g9
F0.8402453064918518
sg10
F0.0023731559373429494
ssssS'IsoMu24_OR_IsoTkMu24_PtBins'
p333
(dp334
S'histo_pt_DATA'
p335
(dp336
S'pt:[22.0,24.0]'
p337
(dp338
g9
F0.06918692588806152
sg10
F0.0013330983471679916
ssS'pt:[18.0,22.0]'
p339
(dp340
g9
F0.002841856563463807
sg10
F0.00027041756485817175
ssS'pt:[120.0,200.0]'
p341
(dp342
g9
F0.9132071137428284
sg10
F0.003852909184612228
ssS'pt:[15.0,18.0]'
p343
(dp344
g9
F0.00032189892954193056
sg10
F0.00013420233837380737
ssS'pt:[10.0,15.0]'
p345
(dp346
g9
F0.0
sg10
F8.660191475457101e-05
ssS'pt:[80.0,120.0]'
p347
(dp348
g9
F0.9117096066474915
sg10
F0.0019532262020532055
ssS'pt:[26.0,30.0]'
p349
(dp350
g9
F0.8517850041389465
sg10
F0.0009327723940059705
ssS'pt:[30.0,40.0]'
p351
(dp352
g9
F0.8871290683746338
sg10
F0.0003634316933446658
ssS'pt:[24.0,26.0]'
p353
(dp354
g9
F0.7804194688796997
sg10
F0.0018593726705541545
ssS'pt:[200.0,500.0]'
p355
(dp356
g9
F0.893703818321228
sg10
F0.009810484021277332
ssS'pt:[60.0,80.0]'
p357
(dp358
g9
F0.9102373719215393
sg10
F0.0009496496171387498
ssS'pt:[50.0,60.0]'
p359
(dp360
g9
F0.9082468748092651
sg10
F0.0006055365036368819
ssS'pt:[0.0,10.0]'
p361
(dp362
g9
F0.0
sg10
F0.000245016037565937
ssS'pt:[40.0,50.0]'
p363
(dp364
g9
F0.902263879776001
sg10
F0.0002886341997621795
ssssS'IsoMu24_OR_IsoTkMu24_EtaBins'
p365
(dp366
S'histo_eta_DATA'
p367
(dp368
S'eta:[-0.2,0.0]'
p369
(dp370
g9
F0.9180253148078918
sg10
F0.0008133085339362074
ssS'eta:[0.2,0.3]'
p371
(dp372
g9
F0.8308748602867126
sg10
F0.0016696142608141
ssS'eta:[-2.4,-2.1]'
p373
(dp374
g9
F0.8076837062835693
sg10
F0.00144746511106862
ssS'eta:[0.9,1.2]'
p375
(dp376
g9
F0.9241603016853333
sg10
F0.000697824084302875
ssS'eta:[0.3,0.9]'
p377
(dp378
g9
F0.9299875497817993
sg10
F0.00044623714239289683
ssS'eta:[-0.9,-0.3]'
p379
(dp380
g9
F0.9304550886154175
sg10
F0.00044558881947314214
ssS'eta:[0.0,0.2]'
p381
(dp382
g9
F0.9203290939331055
sg10
F0.0007968189630430076
ssS'eta:[-1.2,-0.9]'
p383
(dp384
g9
F0.9268634915351868
sg10
F0.0006866525474877469
ssS'eta:[2.1,2.4]'
p385
(dp386
g9
F0.7821844816207886
sg10
F0.0015014588819997868
ssS'eta:[-1.6,-1.2]'
p387
(dp388
g9
F0.918906033039093
sg10
F0.0006566923173050719
ssS'eta:[1.2,1.6]'
p389
(dp390
g9
F0.9111369848251343
sg10
F0.0006872179038950039
ssS'eta:[-2.1,-1.6]'
p391
(dp392
g9
F0.8293065428733826
sg10
F0.0009077484426319952
ssS'eta:[-0.3,-0.2]'
p393
(dp394
g9
F0.8152534365653992
sg10
F0.0017286658370295998
ssS'eta:[1.6,2.1]'
p395
(dp396
g9
F0.8360651731491089
sg10
F0.0008875117754182793
ssssS'Mu50_OR_TkMu50_PtBins'
p397
(dp398
S'histo_pt_DATA'
p399
(dp400
S'pt:[120.0,200.0]'
p401
(dp402
g9
F0.9131178259849548
sg10
F0.003823705224275155
ssS'pt:[25.0,30.0]'
p403
(dp404
g9
F0.0006036618142388761
sg10
F5.997964935967014e-05
ssS'pt:[30.0,40.0]'
p405
(dp406
g9
F0.002647425513714552
sg10
F5.923138502508693e-05
ssS'pt:[80.0,120.0]'
p407
(dp408
g9
F0.9123807549476624
sg10
F0.0019408984778796078
ssS'pt:[10.0,15.0]'
p409
(dp410
g9
F0.0
sg10
F7.209166467231374e-05
ssS'pt:[400.0,800.0]'
p411
(dp412
g9
F0.8804636597633362
sg10
F0.04425679660978829
ssS'pt:[55.0,60.0]'
p413
(dp414
g9
F0.9069408178329468
sg10
F0.0010729142049943799
ssS'pt:[45.0,48.0]'
p415
(dp416
g9
F0.03490104153752327
sg10
F0.00033193504083690384
ssS'pt:[52.0,55.0]'
p417
(dp418
g9
F0.8931328058242798
sg10
F0.0010907726661556923
ssS'pt:[0.0,10.0]'
p419
(dp420
g9
F0.0
sg10
F0.00019122373283392256
ssS'pt:[50.0,52.0]'
p421
(dp422
g9
F0.8109549880027771
sg10
F0.0013517286605324583
ssS'pt:[40.0,45.0]'
p423
(dp424
g9
F0.01096060685813427
sg10
F0.00012770418563660718
ssS'pt:[60.0,80.0]'
p425
(dp426
g9
F0.9118589758872986
sg10
F0.0009318162235793709
ssS'pt:[20.0,25.0]'
p427
(dp428
g9
F0.00016731089272070676
sg10
F4.55846303249668e-05
ssS'pt:[200.0,300.0]'
p429
(dp430
g9
F0.8871545791625977
sg10
F0.01102875749299879
ssS'pt:[48.0,50.0]'
p431
(dp432
g9
F0.16311155259609222
sg10
F0.0010616036445248802
ssS'pt:[300.0,400.0]'
p433
(dp434
g9
F0.8960432410240173
sg10
F0.025634815827284132
ssS'pt:[15.0,20.0]'
p435
(dp436
g9
F2.277367183722845e-11
sg10
F1.4271824813114614e-05
ssss.